target datalayout = "e-m:e-p270:32:32-p271:32:32-p272:64:64-i64:64-i128:128-f80:128-n8:16:32:64-S128"
target triple = "x86_64-pc-linux-gnu"

@hf_gsm_a_bssmap_dlci_cc = internal global i32 0, align 4
@hf_gsm_a_bssmap_dlci_spare = internal global i32 0, align 4
@hf_gsm_a_bssmap_dlci_sapi = internal global i32 0, align 4
@ett_dlci = internal global i32 0, align 4
@.str.723 = private unnamed_addr constant [32 x i8] c"Data Link Connection Identifier\00", align 1

; Function Attrs: null_pointer_is_valid sspstrong uwtable
define internal zeroext i16 @be_dlci(ptr noundef %0, ptr noundef %1, ptr noundef %2, i32 noundef %3, i32 noundef %4, ptr noundef %5, i32 noundef %6) #1 {
  %8 = alloca ptr, align 8
  %9 = alloca ptr, align 8
  %10 = alloca ptr, align 8
  %11 = alloca i32, align 4
  %12 = alloca i32, align 4
  %13 = alloca ptr, align 8
  %14 = alloca i32, align 4
  %15 = alloca i8, align 1
  %16 = alloca i32, align 4
  %17 = alloca ptr, align 8
  store ptr %0, ptr %8, align 8
  store ptr %1, ptr %9, align 8
  store ptr %2, ptr %10, align 8
  store i32 %3, ptr %11, align 4
  store i32 %4, ptr %12, align 4
  store ptr %5, ptr %13, align 8
  store i32 %6, ptr %14, align 4
  call void @llvm.lifetime.start.p0(i64 1, ptr %15) #5
  call void @llvm.lifetime.start.p0(i64 4, ptr %16) #5
  call void @llvm.lifetime.start.p0(i64 8, ptr %17) #5
  %18 = load i32, ptr %11, align 4
  store i32 %18, ptr %16, align 4
  %19 = load ptr, ptr %9, align 8
  %20 = load ptr, ptr %8, align 8
  %21 = load i32, ptr %16, align 4
  %22 = load i32, ptr @ett_dlci, align 4
  %23 = call ptr @proto_tree_add_subtree(ptr noundef %19, ptr noundef %20, i32 noundef %21, i32 noundef 1, i32 noundef %22, ptr noundef null, ptr noundef @.str.723)
  store ptr %23, ptr %17, align 8
  %24 = load ptr, ptr %8, align 8
  %25 = load i32, ptr %16, align 4
  %26 = call zeroext i8 @tvb_get_uint8(ptr noundef %24, i32 noundef %25)
  store i8 %26, ptr %15, align 1
  %27 = load ptr, ptr %17, align 8
  %28 = load i32, ptr @hf_gsm_a_bssmap_dlci_cc, align 4
  %29 = load ptr, ptr %8, align 8
  %30 = load i32, ptr %16, align 4
  %31 = load i8, ptr %15, align 1
  %32 = zext i8 %31 to i32
  %33 = call ptr @proto_tree_add_uint(ptr noundef %27, i32 noundef %28, ptr noundef %29, i32 noundef %30, i32 noundef 1, i32 noundef %32)
  %34 = load ptr, ptr %17, align 8
  %35 = load i32, ptr @hf_gsm_a_bssmap_dlci_spare, align 4
  %36 = load ptr, ptr %8, align 8
  %37 = load i32, ptr %16, align 4
  %38 = load i8, ptr %15, align 1
  %39 = zext i8 %38 to i32
  %40 = call ptr @proto_tree_add_uint(ptr noundef %34, i32 noundef %35, ptr noundef %36, i32 noundef %37, i32 noundef 1, i32 noundef %39)
  %41 = load ptr, ptr %17, align 8
  %42 = load i32, ptr @hf_gsm_a_bssmap_dlci_sapi, align 4
  %43 = load ptr, ptr %8, align 8
  %44 = load i32, ptr %16, align 4
  %45 = load i8, ptr %15, align 1
  %46 = zext i8 %45 to i32
  %47 = call ptr @proto_tree_add_uint(ptr noundef %41, i32 noundef %42, ptr noundef %43, i32 noundef %44, i32 noundef 1, i32 noundef %46)
  %48 = load i32, ptr %16, align 4
  %49 = add i32 %48, 1
  store i32 %49, ptr %16, align 4
  %50 = load i32, ptr %16, align 4
  %51 = load i32, ptr %11, align 4
  %52 = sub i32 %50, %51
  %53 = trunc i32 %52 to i16
  call void @llvm.lifetime.end.p0(i64 8, ptr %17) #5
  call void @llvm.lifetime.end.p0(i64 4, ptr %16) #5
  call void @llvm.lifetime.end.p0(i64 1, ptr %15) #5
  ret i16 %53
}