; Function Attrs: null_pointer_is_valid sspstrong uwtable
define internal noundef zeroext i16 @be_dlci(ptr noundef %0, ptr noundef %1, ptr readnone captures(none) %2, i32 noundef %3, i32 %4, ptr readnone captures(none) %5, i32 %6) #1 {
  %8 = load i32, ptr @ett_dlci, align 4
  %9 = tail call ptr @proto_tree_add_subtree(ptr noundef %1, ptr noundef %0, i32 noundef %3, i32 noundef 1, i32 noundef %8, ptr noundef null, ptr noundef nonnull @.str.723)
  %10 = tail call zeroext i8 @tvb_get_uint8(ptr noundef %0, i32 noundef %3)
  %11 = load i32, ptr @hf_gsm_a_bssmap_dlci_cc, align 4
  %12 = zext i8 %10 to i32
  %13 = tail call ptr @proto_tree_add_uint(ptr noundef %9, i32 noundef %11, ptr noundef %0, i32 noundef %3, i32 noundef 1, i32 noundef %12)
  %14 = load i32, ptr @hf_gsm_a_bssmap_dlci_spare, align 4
  %15 = tail call ptr @proto_tree_add_uint(ptr noundef %9, i32 noundef %14, ptr noundef %0, i32 noundef %3, i32 noundef 1, i32 noundef %12)
  %16 = load i32, ptr @hf_gsm_a_bssmap_dlci_sapi, align 4
  %17 = tail call ptr @proto_tree_add_uint(ptr noundef %9, i32 noundef %16, ptr noundef %0, i32 noundef %3, i32 noundef 1, i32 noundef %12)
  ret i16 1
}